; Function Attrs: nounwind sspstrong uwtable
define ptr @rsock_sockaddr_string_value_ptr(ptr noundef %0) local_unnamed_addr #0 {
  %2 = load volatile i64, ptr %0, align 8, !tbaa !35
  %3 = tail call i32 @rb_typeddata_is_kind_of(i64 noundef %2, ptr noundef nonnull @addrinfo_type) #21
  %.not.i = icmp eq i32 %3, 0
  br i1 %.not.i, label %rsock_sockaddr_string_value.exit, label %4

4:                                                ; preds = %1
  %5 = tail call ptr @rb_check_typeddata(i64 noundef %2, ptr noundef nonnull @addrinfo_type) #21
  %.not.i.i.i = icmp eq ptr %5, null
  br i1 %.not.i.i.i, label %6, label %addrinfo_to_sockaddr.exit.i

6:                                                ; preds = %4
  %7 = load i64, ptr @rb_eTypeError, align 8, !tbaa !35
  tail call void (i64, ptr, ...) @rb_raise(i64 noundef %7, ptr noundef nonnull @.str.101) #23
  unreachable

addrinfo_to_sockaddr.exit.i:                      ; preds = %4
  %8 = getelementptr inbounds nuw i8, ptr %5, i64 32
  %9 = getelementptr inbounds nuw i8, ptr %5, i64 28
  %10 = load i32, ptr %9, align 4, !tbaa !118
  %11 = zext i32 %10 to i64
  %12 = tail call i64 @rb_str_new(ptr noundef nonnull %8, i64 noundef %11) #21
  store volatile i64 %12, ptr %0, align 8, !tbaa !35
  br label %rsock_sockaddr_string_value.exit

rsock_sockaddr_string_value.exit:                 ; preds = %1, %addrinfo_to_sockaddr.exit.i
  %13 = tail call i64 @rb_string_value(ptr noundef nonnull %0) #21
  %14 = load volatile i64, ptr %0, align 8, !tbaa !35
  %15 = load volatile i64, ptr %0, align 8, !tbaa !35
  %16 = inttoptr i64 %15 to ptr
  %17 = load i64, ptr %16, align 8, !tbaa !44, !noalias !131
  %18 = and i64 %17, 8192
  %.not.i.i = icmp eq i64 %18, 0
  %19 = getelementptr inbounds nuw i8, ptr %16, i64 24
  br i1 %.not.i.i, label %RSTRING_PTR.exit, label %20

20:                                               ; preds = %rsock_sockaddr_string_value.exit
  %.sroa.2.0.copyload.i = load ptr, ptr %19, align 8
  br label %RSTRING_PTR.exit

RSTRING_PTR.exit:                                 ; preds = %rsock_sockaddr_string_value.exit, %20
  %.sroa.2.0.i = phi ptr [ %.sroa.2.0.copyload.i, %20 ], [ %19, %rsock_sockaddr_string_value.exit ]
  ret ptr %.sroa.2.0.i
}